target datalayout = "e-m:e-p270:32:32-p271:32:32-p272:64:64-i64:64-i128:128-f80:128-n8:16:32:64-S128"
target triple = "x86_64-pc-linux-gnu"

%struct.If_Par_t_ = type { i32, i32, i32, i32, i32, i32, float, float, i32, i32, i32, i32, i32, i32, i32, i32, i32, i32, i32, i32, i32, i32, i32, i32, i32, i32, i32, i32, i32, i32, i32, i32, i32, i32, i32, i32, i32, i32, i32, i32, i32, i32, i32, i32, i32, i32, i32, i32, i32, i32, ptr, i32, float, i32, i32, i32, i32, i32, i32, i32, i32, i32, i32, i32, i32, i32, i32, float, float, float, ptr, ptr, ptr, ptr, ptr, ptr, ptr, ptr, ptr }
%struct.Gia_Man_t_ = type { ptr, ptr, i32, i32, i32, i32, ptr, ptr, i32, i32, i32, ptr, ptr, %struct.Vec_Int_t_, %struct.Vec_Int_t_, i32, i32, i32, %struct.Vec_Int_t_, ptr, ptr, ptr, i32, i32, i32, i32, ptr, ptr, ptr, ptr, ptr, i32, i32, ptr, i32, ptr, ptr, ptr, ptr, ptr, ptr, ptr, ptr, ptr, ptr, ptr, ptr, ptr, ptr, ptr, ptr, ptr, ptr, %struct.Vec_Int_t_, %struct.Vec_Int_t_, ptr, ptr, ptr, ptr, ptr, ptr, ptr, ptr, ptr, ptr, ptr, ptr, ptr, ptr, ptr, ptr, ptr, ptr, ptr, ptr, ptr, i32, float, float, ptr, ptr, i32, ptr, ptr, ptr, ptr, ptr, ptr, ptr, ptr, ptr, ptr, ptr, ptr, ptr, ptr, ptr, i64, i64, ptr, ptr, i32, i32, i32, i32, i32, i32, i32, i32, i32, i32, i32, i32, ptr, ptr, ptr, ptr, ptr, ptr, ptr, ptr, i32, i32, i32, ptr, i32, i32, ptr, ptr, ptr, ptr, ptr, ptr, i32, i32, ptr, %struct.Vec_Int_t_, %struct.Vec_Int_t_, %struct.Vec_Int_t_, ptr, ptr, ptr, i32, i32, i32, i32, ptr, ptr, ptr, ptr, ptr }
%struct.Vec_Int_t_ = type { i32, i32, ptr }

; Function Attrs: inlinehint nounwind uwtable
define internal i32 @Gia_ManRegNum(ptr noundef %0) #3 {
  %2 = alloca ptr, align 8
  store ptr %0, ptr %2, align 8, !tbaa !40
  %3 = load ptr, ptr %2, align 8, !tbaa !40
  %4 = getelementptr inbounds nuw %struct.Gia_Man_t_, ptr %3, i32 0, i32 2
  %5 = load i32, ptr %4, align 8, !tbaa !114
  ret i32 %5
}

; Function Attrs: inlinehint nounwind uwtable
define internal ptr @Abc_UtilStrsav(ptr noundef %0) #3 {
  %2 = alloca ptr, align 8
  store ptr %0, ptr %2, align 8, !tbaa !106
  %3 = load ptr, ptr %2, align 8, !tbaa !106
  %4 = icmp ne ptr %3, null
  br i1 %4, label %5, label %13

5:                                                ; preds = %1
  %6 = load ptr, ptr %2, align 8, !tbaa !106
  %7 = call i64 @strlen(ptr noundef %6) #17
  %8 = add i64 %7, 1
  %9 = mul i64 1, %8
  %10 = call noalias ptr @malloc(i64 noundef %9) #16
  %11 = load ptr, ptr %2, align 8, !tbaa !106
  %12 = call ptr @strcpy(ptr noundef %10, ptr noundef %11) #14
  br label %14

13:                                               ; preds = %1
  br label %14

14:                                               ; preds = %13, %5
  %15 = phi ptr [ %12, %5 ], [ null, %13 ]
  ret ptr %15
}

; Function Attrs: nounwind uwtable
define ptr @Gia_ManPerformSopBalance(ptr noundef %0, i32 noundef %1, i32 noundef %2, i32 noundef %3) #0 {
  %5 = alloca ptr, align 8
  %6 = alloca i32, align 4
  %7 = alloca i32, align 4
  %8 = alloca i32, align 4
  %9 = alloca ptr, align 8
  %10 = alloca ptr, align 8
  %11 = alloca %struct.If_Par_t_, align 8
  %12 = alloca ptr, align 8
  store ptr %0, ptr %5, align 8, !tbaa !40
  store i32 %1, ptr %6, align 4, !tbaa !42
  store i32 %2, ptr %7, align 4, !tbaa !42
  store i32 %3, ptr %8, align 4, !tbaa !42
  call void @llvm.lifetime.start.p0(i64 8, ptr %9) #14
  call void @llvm.lifetime.start.p0(i64 8, ptr %10) #14
  call void @llvm.lifetime.start.p0(i64 360, ptr %11) #14
  call void @llvm.lifetime.start.p0(i64 8, ptr %12) #14
  store ptr %11, ptr %12, align 8, !tbaa !7
  %13 = load ptr, ptr %12, align 8, !tbaa !7
  call void @If_ManSetDefaultPars(ptr noundef %13)
  %14 = load i32, ptr %6, align 4, !tbaa !42
  %15 = load ptr, ptr %12, align 8, !tbaa !7
  %16 = getelementptr inbounds nuw %struct.If_Par_t_, ptr %15, i32 0, i32 1
  store i32 %14, ptr %16, align 4, !tbaa !16
  %17 = load i32, ptr %7, align 4, !tbaa !42
  %18 = load ptr, ptr %12, align 8, !tbaa !7
  %19 = getelementptr inbounds nuw %struct.If_Par_t_, ptr %18, i32 0, i32 8
  store i32 %17, ptr %19, align 8, !tbaa !344
  %20 = load i32, ptr %8, align 4, !tbaa !42
  %21 = load ptr, ptr %12, align 8, !tbaa !7
  %22 = getelementptr inbounds nuw %struct.If_Par_t_, ptr %21, i32 0, i32 48
  store i32 %20, ptr %22, align 8, !tbaa !29
  %23 = load ptr, ptr %12, align 8, !tbaa !7
  %24 = getelementptr inbounds nuw %struct.If_Par_t_, ptr %23, i32 0, i32 0
  store i32 6, ptr %24, align 8, !tbaa !9
  %25 = load ptr, ptr %12, align 8, !tbaa !7
  %26 = getelementptr inbounds nuw %struct.If_Par_t_, ptr %25, i32 0, i32 22
  store i32 1, ptr %26, align 8, !tbaa !174
  %27 = load ptr, ptr %12, align 8, !tbaa !7
  %28 = getelementptr inbounds nuw %struct.If_Par_t_, ptr %27, i32 0, i32 21
  store i32 1, ptr %28, align 4, !tbaa !28
  %29 = load ptr, ptr %12, align 8, !tbaa !7
  %30 = getelementptr inbounds nuw %struct.If_Par_t_, ptr %29, i32 0, i32 55
  store i32 1, ptr %30, align 8, !tbaa !31
  %31 = load ptr, ptr %12, align 8, !tbaa !7
  %32 = getelementptr inbounds nuw %struct.If_Par_t_, ptr %31, i32 0, i32 16
  store i32 0, ptr %32, align 8, !tbaa !24
  %33 = load ptr, ptr %5, align 8, !tbaa !40
  %34 = load ptr, ptr %12, align 8, !tbaa !7
  %35 = call ptr @Gia_ManToIf(ptr noundef %33, ptr noundef %34)
  store ptr %35, ptr %10, align 8, !tbaa !129
  %36 = load ptr, ptr %10, align 8, !tbaa !129
  %37 = call i32 @If_ManPerformMapping(ptr noundef %36)
  %38 = load ptr, ptr %10, align 8, !tbaa !129
  %39 = call ptr @Gia_ManFromIfAig(ptr noundef %38)
  store ptr %39, ptr %9, align 8, !tbaa !40
  %40 = load ptr, ptr %10, align 8, !tbaa !129
  call void @If_ManStop(ptr noundef %40)
  %41 = load ptr, ptr %9, align 8, !tbaa !40
  %42 = load ptr, ptr %5, align 8, !tbaa !40
  call void @Gia_ManTransferTiming(ptr noundef %41, ptr noundef %42)
  %43 = load ptr, ptr %5, align 8, !tbaa !40
  %44 = getelementptr inbounds nuw %struct.Gia_Man_t_, ptr %43, i32 0, i32 0
  %45 = load ptr, ptr %44, align 8, !tbaa !112
  %46 = call ptr @Abc_UtilStrsav(ptr noundef %45)
  %47 = load ptr, ptr %9, align 8, !tbaa !40
  %48 = getelementptr inbounds nuw %struct.Gia_Man_t_, ptr %47, i32 0, i32 0
  store ptr %46, ptr %48, align 8, !tbaa !112
  %49 = load ptr, ptr %5, align 8, !tbaa !40
  %50 = getelementptr inbounds nuw %struct.Gia_Man_t_, ptr %49, i32 0, i32 1
  %51 = load ptr, ptr %50, align 8, !tbaa !330
  %52 = call ptr @Abc_UtilStrsav(ptr noundef %51)
  %53 = load ptr, ptr %9, align 8, !tbaa !40
  %54 = getelementptr inbounds nuw %struct.Gia_Man_t_, ptr %53, i32 0, i32 1
  store ptr %52, ptr %54, align 8, !tbaa !330
  %55 = load ptr, ptr %9, align 8, !tbaa !40
  %56 = load ptr, ptr %5, align 8, !tbaa !40
  %57 = call i32 @Gia_ManRegNum(ptr noundef %56)
  call void @Gia_ManSetRegNum(ptr noundef %55, i32 noundef %57)
  %58 = load ptr, ptr %9, align 8, !tbaa !40
  call void @llvm.lifetime.end.p0(i64 8, ptr %12) #14
  call void @llvm.lifetime.end.p0(i64 360, ptr %11) #14
  call void @llvm.lifetime.end.p0(i64 8, ptr %10) #14
  call void @llvm.lifetime.end.p0(i64 8, ptr %9) #14
  ret ptr %58
}