; Function Attrs: nounwind uwtable
define ptr @Gia_ManPerformSopBalance(ptr noundef %0, i32 noundef %1, i32 noundef %2, i32 noundef %3) local_unnamed_addr #4 {
  %5 = alloca %struct.If_Par_t_, align 8
  call void @llvm.lifetime.start.p0(i64 360, ptr nonnull %5) #27
  call void @If_ManSetDefaultPars(ptr noundef nonnull %5) #27
  %6 = getelementptr inbounds nuw i8, ptr %5, i64 4
  store i32 %1, ptr %6, align 4, !tbaa !13
  %7 = getelementptr inbounds nuw i8, ptr %5, i64 32
  store i32 %2, ptr %7, align 8, !tbaa !329
  %8 = getelementptr inbounds nuw i8, ptr %5, i64 192
  store i32 %3, ptr %8, align 8, !tbaa !330
  store i32 6, ptr %5, align 8, !tbaa !3
  %9 = getelementptr inbounds nuw i8, ptr %5, i64 88
  store i32 1, ptr %9, align 8, !tbaa !152
  %10 = getelementptr inbounds nuw i8, ptr %5, i64 84
  store i32 1, ptr %10, align 4, !tbaa !22
  %11 = getelementptr inbounds nuw i8, ptr %5, i64 224
  store i32 1, ptr %11, align 8, !tbaa !266
  %12 = getelementptr inbounds nuw i8, ptr %5, i64 64
  store i32 0, ptr %12, align 8, !tbaa !20
  %13 = call ptr @Gia_ManToIf(ptr noundef %0, ptr noundef nonnull %5)
  %14 = call i32 @If_ManPerformMapping(ptr noundef %13) #27
  %15 = call ptr @Gia_ManFromIfAig(ptr noundef %13)
  call void @If_ManStop(ptr noundef %13) #27
  call void @Gia_ManTransferTiming(ptr noundef %15, ptr noundef %0)
  %16 = load ptr, ptr %0, align 8, !tbaa !92
  %.not.i = icmp eq ptr %16, null
  br i1 %.not.i, label %Abc_UtilStrsav.exit, label %17

17:                                               ; preds = %4
  %18 = call i64 @strlen(ptr noundef nonnull readonly dereferenceable(1) %16) #30
  %19 = add i64 %18, 1
  %20 = call noalias ptr @malloc(i64 noundef %19) #29
  %21 = call ptr @strcpy(ptr noundef nonnull dereferenceable(1) %20, ptr noundef nonnull readonly dereferenceable(1) %16) #27
  br label %Abc_UtilStrsav.exit

Abc_UtilStrsav.exit:                              ; preds = %4, %17
  %22 = phi ptr [ %20, %17 ], [ null, %4 ]
  store ptr %22, ptr %15, align 8, !tbaa !92
  %23 = getelementptr inbounds nuw i8, ptr %0, i64 8
  %24 = load ptr, ptr %23, align 8, !tbaa !315
  %.not.i25 = icmp eq ptr %24, null
  br i1 %.not.i25, label %Abc_UtilStrsav.exit26, label %25

25:                                               ; preds = %Abc_UtilStrsav.exit
  %26 = call i64 @strlen(ptr noundef nonnull readonly dereferenceable(1) %24) #30
  %27 = add i64 %26, 1
  %28 = call noalias ptr @malloc(i64 noundef %27) #29
  %29 = call ptr @strcpy(ptr noundef nonnull dereferenceable(1) %28, ptr noundef nonnull readonly dereferenceable(1) %24) #27
  br label %Abc_UtilStrsav.exit26

Abc_UtilStrsav.exit26:                            ; preds = %Abc_UtilStrsav.exit, %25
  %30 = phi ptr [ %28, %25 ], [ null, %Abc_UtilStrsav.exit ]
  %31 = getelementptr inbounds nuw i8, ptr %15, i64 8
  store ptr %30, ptr %31, align 8, !tbaa !315
  %32 = getelementptr i8, ptr %0, i64 16
  %.val = load i32, ptr %32, align 8, !tbaa !93
  call void @Gia_ManSetRegNum(ptr noundef nonnull %15, i32 noundef %.val) #27
  call void @llvm.lifetime.end.p0(i64 360, ptr nonnull %5) #27
  ret ptr %15
}